target datalayout = "e-m:e-p270:32:32-p271:32:32-p272:64:64-i64:64-i128:128-f80:128-n8:16:32:64-S128"
target triple = "x86_64-unknown-linux-gnu"

%struct.NotifierWithReturnList = type { %struct.anon.4 }
%struct.anon.4 = type { ptr }
%struct.PrecopyNotifyData = type { i32, ptr }

@precopy_notifier_list = internal global %struct.NotifierWithReturnList zeroinitializer, align 8

; Function Attrs: nounwind sspstrong uwtable
define dso_local i32 @precopy_notify(i32 noundef %reason, ptr noundef %errp) #0 {
entry:
  %reason.addr = alloca i32, align 4
  %errp.addr = alloca ptr, align 8
  %pnd = alloca %struct.PrecopyNotifyData, align 8
  store i32 %reason, ptr %reason.addr, align 4
  store ptr %errp, ptr %errp.addr, align 8
  %0 = load i32, ptr %reason.addr, align 4
  %reason1 = getelementptr inbounds %struct.PrecopyNotifyData, ptr %pnd, i32 0, i32 0
  store i32 %0, ptr %reason1, align 8
  %1 = load ptr, ptr %errp.addr, align 8
  %errp2 = getelementptr inbounds %struct.PrecopyNotifyData, ptr %pnd, i32 0, i32 1
  store ptr %1, ptr %errp2, align 8
  %call = call i32 @notifier_with_return_list_notify(ptr noundef @precopy_notifier_list, ptr noundef %pnd)
  ret i32 %call
}